target datalayout = "e-m:e-p270:32:32-p271:32:32-p272:64:64-i64:64-i128:128-f80:128-n8:16:32:64-S128"
target triple = "x86_64-pc-linux-gnu"

%struct.llvm_blake3_hasher = type { [8 x i32], %struct.llvm_blake3_chunk_state, i8, [1760 x i8] }
%struct.llvm_blake3_chunk_state = type { [8 x i32], i64, [64 x i8], i8, i8, i8 }

@IV = internal constant [8 x i32] [i32 1779033703, i32 -1150833019, i32 1013904242, i32 -1521486534, i32 1359893119, i32 -1694144372, i32 528734635, i32 1541459225], align 16

; Function Attrs: nounwind uwtable
define dso_local void @llvm_blake3_hasher_finalize(ptr noundef %0, ptr noundef %1, i64 noundef %2) #0 {
  %4 = alloca ptr, align 8
  %5 = alloca ptr, align 8
  %6 = alloca i64, align 8
  store ptr %0, ptr %4, align 8
  store ptr %1, ptr %5, align 8
  store i64 %2, ptr %6, align 8
  %7 = load ptr, ptr %4, align 8
  %8 = load ptr, ptr %5, align 8
  %9 = load i64, ptr %6, align 8
  call void @llvm_blake3_hasher_finalize_seek(ptr noundef %7, i64 noundef 0, ptr noundef %8, i64 noundef %9)
  ret void
}

; Function Attrs: nounwind uwtable
define dso_local void @llvm_blake3_hasher_init_derive_key_raw(ptr noundef %0, ptr noundef %1, i64 noundef %2) #0 {
  %4 = alloca ptr, align 8
  %5 = alloca ptr, align 8
  %6 = alloca ptr, align 8
  %7 = alloca ptr, align 8
  %8 = alloca ptr, align 8
  %9 = alloca ptr, align 8
  %10 = alloca ptr, align 8
  %11 = alloca ptr, align 8
  %12 = alloca ptr, align 8
  %13 = alloca ptr, align 8
  %14 = alloca ptr, align 8
  %15 = alloca ptr, align 8
  %16 = alloca ptr, align 8
  %17 = alloca ptr, align 8
  %18 = alloca ptr, align 8
  %19 = alloca ptr, align 8
  %20 = alloca ptr, align 8
  %21 = alloca ptr, align 8
  %22 = alloca i8, align 1
  %23 = alloca ptr, align 8
  %24 = alloca ptr, align 8
  %25 = alloca i8, align 1
  %26 = alloca ptr, align 8
  %27 = alloca ptr, align 8
  %28 = alloca ptr, align 8
  %29 = alloca ptr, align 8
  %30 = alloca i8, align 1
  %31 = alloca ptr, align 8
  %32 = alloca ptr, align 8
  %33 = alloca i8, align 1
  %34 = alloca ptr, align 8
  %35 = alloca ptr, align 8
  %36 = alloca i64, align 8
  %37 = alloca %struct.llvm_blake3_hasher, align 8
  %38 = alloca [32 x i8], align 16
  %39 = alloca [8 x i32], align 16
  store ptr %0, ptr %34, align 8
  store ptr %1, ptr %35, align 8
  store i64 %2, ptr %36, align 8
  store ptr %37, ptr %28, align 8
  store ptr @IV, ptr %29, align 8
  store i8 32, ptr %30, align 1
  %40 = load ptr, ptr %28, align 8
  %41 = load ptr, ptr %29, align 8
  call void @llvm.memcpy.p0.p0.i64(ptr align 8 %40, ptr align 4 %41, i64 32, i1 false)
  %42 = load ptr, ptr %28, align 8
  %43 = getelementptr inbounds nuw %struct.llvm_blake3_hasher, ptr %42, i32 0, i32 1
  %44 = load ptr, ptr %29, align 8
  %45 = load i8, ptr %30, align 1
  store ptr %43, ptr %23, align 8
  store ptr %44, ptr %24, align 8
  store i8 %45, ptr %25, align 1
  %46 = load ptr, ptr %23, align 8
  %47 = load ptr, ptr %24, align 8
  call void @llvm.memcpy.p0.p0.i64(ptr align 8 %46, ptr align 4 %47, i64 32, i1 false)
  %48 = load ptr, ptr %23, align 8
  %49 = getelementptr inbounds nuw %struct.llvm_blake3_chunk_state, ptr %48, i32 0, i32 1
  store i64 0, ptr %49, align 8
  %50 = load ptr, ptr %23, align 8
  %51 = getelementptr inbounds nuw %struct.llvm_blake3_chunk_state, ptr %50, i32 0, i32 2
  call void @llvm.memset.p0.i64(ptr align 8 %51, i8 0, i64 64, i1 false)
  %52 = load ptr, ptr %23, align 8
  %53 = getelementptr inbounds nuw %struct.llvm_blake3_chunk_state, ptr %52, i32 0, i32 3
  store i8 0, ptr %53, align 8
  %54 = load ptr, ptr %23, align 8
  %55 = getelementptr inbounds nuw %struct.llvm_blake3_chunk_state, ptr %54, i32 0, i32 4
  store i8 0, ptr %55, align 1
  %56 = load i8, ptr %25, align 1
  %57 = load ptr, ptr %23, align 8
  %58 = getelementptr inbounds nuw %struct.llvm_blake3_chunk_state, ptr %57, i32 0, i32 5
  store i8 %56, ptr %58, align 2
  %59 = load ptr, ptr %28, align 8
  %60 = getelementptr inbounds nuw %struct.llvm_blake3_hasher, ptr %59, i32 0, i32 2
  store i8 0, ptr %60, align 8
  %61 = load ptr, ptr %35, align 8
  %62 = load i64, ptr %36, align 8
  call void @llvm_blake3_hasher_update(ptr noundef %37, ptr noundef %61, i64 noundef %62)
  %63 = getelementptr inbounds [32 x i8], ptr %38, i64 0, i64 0
  call void @llvm_blake3_hasher_finalize(ptr noundef %37, ptr noundef %63, i64 noundef 32)
  %64 = getelementptr inbounds [32 x i8], ptr %38, i64 0, i64 0
  %65 = getelementptr inbounds [8 x i32], ptr %39, i64 0, i64 0
  store ptr %64, ptr %26, align 8
  store ptr %65, ptr %27, align 8
  %66 = load ptr, ptr %26, align 8
  store ptr %66, ptr %4, align 8
  %67 = load ptr, ptr %4, align 8
  store ptr %67, ptr %5, align 8
  %68 = load ptr, ptr %5, align 8
  %69 = load i8, ptr %68, align 1
  %70 = zext i8 %69 to i32
  %71 = load ptr, ptr %5, align 8
  %72 = getelementptr inbounds i8, ptr %71, i64 1
  %73 = load i8, ptr %72, align 1
  %74 = zext i8 %73 to i32
  %75 = shl i32 %74, 8
  %76 = or i32 %70, %75
  %77 = load ptr, ptr %5, align 8
  %78 = getelementptr inbounds i8, ptr %77, i64 2
  %79 = load i8, ptr %78, align 1
  %80 = zext i8 %79 to i32
  %81 = shl i32 %80, 16
  %82 = or i32 %76, %81
  %83 = load ptr, ptr %5, align 8
  %84 = getelementptr inbounds i8, ptr %83, i64 3
  %85 = load i8, ptr %84, align 1
  %86 = zext i8 %85 to i32
  %87 = shl i32 %86, 24
  %88 = or i32 %82, %87
  %89 = load ptr, ptr %27, align 8
  store i32 %88, ptr %89, align 4
  %90 = load ptr, ptr %26, align 8
  %91 = getelementptr inbounds i8, ptr %90, i64 4
  store ptr %91, ptr %6, align 8
  %92 = load ptr, ptr %6, align 8
  store ptr %92, ptr %7, align 8
  %93 = load ptr, ptr %7, align 8
  %94 = load i8, ptr %93, align 1
  %95 = zext i8 %94 to i32
  %96 = load ptr, ptr %7, align 8
  %97 = getelementptr inbounds i8, ptr %96, i64 1
  %98 = load i8, ptr %97, align 1
  %99 = zext i8 %98 to i32
  %100 = shl i32 %99, 8
  %101 = or i32 %95, %100
  %102 = load ptr, ptr %7, align 8
  %103 = getelementptr inbounds i8, ptr %102, i64 2
  %104 = load i8, ptr %103, align 1
  %105 = zext i8 %104 to i32
  %106 = shl i32 %105, 16
  %107 = or i32 %101, %106
  %108 = load ptr, ptr %7, align 8
  %109 = getelementptr inbounds i8, ptr %108, i64 3
  %110 = load i8, ptr %109, align 1
  %111 = zext i8 %110 to i32
  %112 = shl i32 %111, 24
  %113 = or i32 %107, %112
  %114 = load ptr, ptr %27, align 8
  %115 = getelementptr inbounds i32, ptr %114, i64 1
  store i32 %113, ptr %115, align 4
  %116 = load ptr, ptr %26, align 8
  %117 = getelementptr inbounds i8, ptr %116, i64 8
  store ptr %117, ptr %8, align 8
  %118 = load ptr, ptr %8, align 8
  store ptr %118, ptr %9, align 8
  %119 = load ptr, ptr %9, align 8
  %120 = load i8, ptr %119, align 1
  %121 = zext i8 %120 to i32
  %122 = load ptr, ptr %9, align 8
  %123 = getelementptr inbounds i8, ptr %122, i64 1
  %124 = load i8, ptr %123, align 1
  %125 = zext i8 %124 to i32
  %126 = shl i32 %125, 8
  %127 = or i32 %121, %126
  %128 = load ptr, ptr %9, align 8
  %129 = getelementptr inbounds i8, ptr %128, i64 2
  %130 = load i8, ptr %129, align 1
  %131 = zext i8 %130 to i32
  %132 = shl i32 %131, 16
  %133 = or i32 %127, %132
  %134 = load ptr, ptr %9, align 8
  %135 = getelementptr inbounds i8, ptr %134, i64 3
  %136 = load i8, ptr %135, align 1
  %137 = zext i8 %136 to i32
  %138 = shl i32 %137, 24
  %139 = or i32 %133, %138
  %140 = load ptr, ptr %27, align 8
  %141 = getelementptr inbounds i32, ptr %140, i64 2
  store i32 %139, ptr %141, align 4
  %142 = load ptr, ptr %26, align 8
  %143 = getelementptr inbounds i8, ptr %142, i64 12
  store ptr %143, ptr %10, align 8
  %144 = load ptr, ptr %10, align 8
  store ptr %144, ptr %11, align 8
  %145 = load ptr, ptr %11, align 8
  %146 = load i8, ptr %145, align 1
  %147 = zext i8 %146 to i32
  %148 = load ptr, ptr %11, align 8
  %149 = getelementptr inbounds i8, ptr %148, i64 1
  %150 = load i8, ptr %149, align 1
  %151 = zext i8 %150 to i32
  %152 = shl i32 %151, 8
  %153 = or i32 %147, %152
  %154 = load ptr, ptr %11, align 8
  %155 = getelementptr inbounds i8, ptr %154, i64 2
  %156 = load i8, ptr %155, align 1
  %157 = zext i8 %156 to i32
  %158 = shl i32 %157, 16
  %159 = or i32 %153, %158
  %160 = load ptr, ptr %11, align 8
  %161 = getelementptr inbounds i8, ptr %160, i64 3
  %162 = load i8, ptr %161, align 1
  %163 = zext i8 %162 to i32
  %164 = shl i32 %163, 24
  %165 = or i32 %159, %164
  %166 = load ptr, ptr %27, align 8
  %167 = getelementptr inbounds i32, ptr %166, i64 3
  store i32 %165, ptr %167, align 4
  %168 = load ptr, ptr %26, align 8
  %169 = getelementptr inbounds i8, ptr %168, i64 16
  store ptr %169, ptr %12, align 8
  %170 = load ptr, ptr %12, align 8
  store ptr %170, ptr %13, align 8
  %171 = load ptr, ptr %13, align 8
  %172 = load i8, ptr %171, align 1
  %173 = zext i8 %172 to i32
  %174 = load ptr, ptr %13, align 8
  %175 = getelementptr inbounds i8, ptr %174, i64 1
  %176 = load i8, ptr %175, align 1
  %177 = zext i8 %176 to i32
  %178 = shl i32 %177, 8
  %179 = or i32 %173, %178
  %180 = load ptr, ptr %13, align 8
  %181 = getelementptr inbounds i8, ptr %180, i64 2
  %182 = load i8, ptr %181, align 1
  %183 = zext i8 %182 to i32
  %184 = shl i32 %183, 16
  %185 = or i32 %179, %184
  %186 = load ptr, ptr %13, align 8
  %187 = getelementptr inbounds i8, ptr %186, i64 3
  %188 = load i8, ptr %187, align 1
  %189 = zext i8 %188 to i32
  %190 = shl i32 %189, 24
  %191 = or i32 %185, %190
  %192 = load ptr, ptr %27, align 8
  %193 = getelementptr inbounds i32, ptr %192, i64 4
  store i32 %191, ptr %193, align 4
  %194 = load ptr, ptr %26, align 8
  %195 = getelementptr inbounds i8, ptr %194, i64 20
  store ptr %195, ptr %14, align 8
  %196 = load ptr, ptr %14, align 8
  store ptr %196, ptr %15, align 8
  %197 = load ptr, ptr %15, align 8
  %198 = load i8, ptr %197, align 1
  %199 = zext i8 %198 to i32
  %200 = load ptr, ptr %15, align 8
  %201 = getelementptr inbounds i8, ptr %200, i64 1
  %202 = load i8, ptr %201, align 1
  %203 = zext i8 %202 to i32
  %204 = shl i32 %203, 8
  %205 = or i32 %199, %204
  %206 = load ptr, ptr %15, align 8
  %207 = getelementptr inbounds i8, ptr %206, i64 2
  %208 = load i8, ptr %207, align 1
  %209 = zext i8 %208 to i32
  %210 = shl i32 %209, 16
  %211 = or i32 %205, %210
  %212 = load ptr, ptr %15, align 8
  %213 = getelementptr inbounds i8, ptr %212, i64 3
  %214 = load i8, ptr %213, align 1
  %215 = zext i8 %214 to i32
  %216 = shl i32 %215, 24
  %217 = or i32 %211, %216
  %218 = load ptr, ptr %27, align 8
  %219 = getelementptr inbounds i32, ptr %218, i64 5
  store i32 %217, ptr %219, align 4
  %220 = load ptr, ptr %26, align 8
  %221 = getelementptr inbounds i8, ptr %220, i64 24
  store ptr %221, ptr %16, align 8
  %222 = load ptr, ptr %16, align 8
  store ptr %222, ptr %17, align 8
  %223 = load ptr, ptr %17, align 8
  %224 = load i8, ptr %223, align 1
  %225 = zext i8 %224 to i32
  %226 = load ptr, ptr %17, align 8
  %227 = getelementptr inbounds i8, ptr %226, i64 1
  %228 = load i8, ptr %227, align 1
  %229 = zext i8 %228 to i32
  %230 = shl i32 %229, 8
  %231 = or i32 %225, %230
  %232 = load ptr, ptr %17, align 8
  %233 = getelementptr inbounds i8, ptr %232, i64 2
  %234 = load i8, ptr %233, align 1
  %235 = zext i8 %234 to i32
  %236 = shl i32 %235, 16
  %237 = or i32 %231, %236
  %238 = load ptr, ptr %17, align 8
  %239 = getelementptr inbounds i8, ptr %238, i64 3
  %240 = load i8, ptr %239, align 1
  %241 = zext i8 %240 to i32
  %242 = shl i32 %241, 24
  %243 = or i32 %237, %242
  %244 = load ptr, ptr %27, align 8
  %245 = getelementptr inbounds i32, ptr %244, i64 6
  store i32 %243, ptr %245, align 4
  %246 = load ptr, ptr %26, align 8
  %247 = getelementptr inbounds i8, ptr %246, i64 28
  store ptr %247, ptr %18, align 8
  %248 = load ptr, ptr %18, align 8
  store ptr %248, ptr %19, align 8
  %249 = load ptr, ptr %19, align 8
  %250 = load i8, ptr %249, align 1
  %251 = zext i8 %250 to i32
  %252 = load ptr, ptr %19, align 8
  %253 = getelementptr inbounds i8, ptr %252, i64 1
  %254 = load i8, ptr %253, align 1
  %255 = zext i8 %254 to i32
  %256 = shl i32 %255, 8
  %257 = or i32 %251, %256
  %258 = load ptr, ptr %19, align 8
  %259 = getelementptr inbounds i8, ptr %258, i64 2
  %260 = load i8, ptr %259, align 1
  %261 = zext i8 %260 to i32
  %262 = shl i32 %261, 16
  %263 = or i32 %257, %262
  %264 = load ptr, ptr %19, align 8
  %265 = getelementptr inbounds i8, ptr %264, i64 3
  %266 = load i8, ptr %265, align 1
  %267 = zext i8 %266 to i32
  %268 = shl i32 %267, 24
  %269 = or i32 %263, %268
  %270 = load ptr, ptr %27, align 8
  %271 = getelementptr inbounds i32, ptr %270, i64 7
  store i32 %269, ptr %271, align 4
  %272 = load ptr, ptr %34, align 8
  %273 = getelementptr inbounds [8 x i32], ptr %39, i64 0, i64 0
  store ptr %272, ptr %31, align 8
  store ptr %273, ptr %32, align 8
  store i8 64, ptr %33, align 1
  %274 = load ptr, ptr %31, align 8
  %275 = load ptr, ptr %32, align 8
  call void @llvm.memcpy.p0.p0.i64(ptr align 8 %274, ptr align 4 %275, i64 32, i1 false)
  %276 = load ptr, ptr %31, align 8
  %277 = getelementptr inbounds nuw %struct.llvm_blake3_hasher, ptr %276, i32 0, i32 1
  %278 = load ptr, ptr %32, align 8
  %279 = load i8, ptr %33, align 1
  store ptr %277, ptr %20, align 8
  store ptr %278, ptr %21, align 8
  store i8 %279, ptr %22, align 1
  %280 = load ptr, ptr %20, align 8
  %281 = load ptr, ptr %21, align 8
  call void @llvm.memcpy.p0.p0.i64(ptr align 8 %280, ptr align 4 %281, i64 32, i1 false)
  %282 = load ptr, ptr %20, align 8
  %283 = getelementptr inbounds nuw %struct.llvm_blake3_chunk_state, ptr %282, i32 0, i32 1
  store i64 0, ptr %283, align 8
  %284 = load ptr, ptr %20, align 8
  %285 = getelementptr inbounds nuw %struct.llvm_blake3_chunk_state, ptr %284, i32 0, i32 2
  call void @llvm.memset.p0.i64(ptr align 8 %285, i8 0, i64 64, i1 false)
  %286 = load ptr, ptr %20, align 8
  %287 = getelementptr inbounds nuw %struct.llvm_blake3_chunk_state, ptr %286, i32 0, i32 3
  store i8 0, ptr %287, align 8
  %288 = load ptr, ptr %20, align 8
  %289 = getelementptr inbounds nuw %struct.llvm_blake3_chunk_state, ptr %288, i32 0, i32 4
  store i8 0, ptr %289, align 1
  %290 = load i8, ptr %22, align 1
  %291 = load ptr, ptr %20, align 8
  %292 = getelementptr inbounds nuw %struct.llvm_blake3_chunk_state, ptr %291, i32 0, i32 5
  store i8 %290, ptr %292, align 2
  %293 = load ptr, ptr %31, align 8
  %294 = getelementptr inbounds nuw %struct.llvm_blake3_hasher, ptr %293, i32 0, i32 2
  store i8 0, ptr %294, align 8
  ret void
}