; Function Attrs: nounwind uwtable
define dso_local void @llvm_blake3_hasher_init_derive_key_raw(ptr noundef writeonly captures(none) initializes((0, 139), (144, 145)) %0, ptr noundef %1, i64 noundef %2) local_unnamed_addr #2 {
  %4 = alloca %struct.llvm_blake3_hasher, align 8
  %5 = alloca [32 x i8], align 16
  call void @llvm.memcpy.p0.p0.i64(ptr noundef nonnull align 8 dereferenceable(32) %4, ptr noundef nonnull align 16 dereferenceable(32) @IV, i64 32, i1 false)
  %6 = getelementptr inbounds nuw i8, ptr %4, i64 32
  call void @llvm.memcpy.p0.p0.i64(ptr noundef nonnull align 8 dereferenceable(32) %6, ptr noundef nonnull align 16 dereferenceable(32) @IV, i64 32, i1 false)
  %7 = getelementptr inbounds nuw i8, ptr %4, i64 64
  %8 = getelementptr inbounds nuw i8, ptr %4, i64 138
  call void @llvm.memset.p0.i64(ptr noundef nonnull align 8 dereferenceable(74) %7, i8 0, i64 74, i1 false)
  store i8 32, ptr %8, align 2
  %9 = getelementptr inbounds nuw i8, ptr %4, i64 144
  store i8 0, ptr %9, align 8
  call void @llvm_blake3_hasher_update(ptr noundef nonnull %4, ptr noundef %1, i64 noundef %2)
  call void @llvm_blake3_hasher_finalize_seek(ptr noundef nonnull readonly %4, i64 noundef 0, ptr noundef nonnull %5, i64 noundef 32)
  %10 = load i16, ptr %5, align 16
  %11 = zext i16 %10 to i32
  %12 = getelementptr inbounds nuw i8, ptr %5, i64 2
  %13 = load i8, ptr %12, align 2
  %14 = zext i8 %13 to i32
  %15 = shl nuw nsw i32 %14, 16
  %16 = or disjoint i32 %15, %11
  %17 = getelementptr inbounds nuw i8, ptr %5, i64 3
  %18 = load i8, ptr %17, align 1
  %19 = zext i8 %18 to i32
  %20 = shl nuw i32 %19, 24
  %21 = or disjoint i32 %16, %20
  %22 = getelementptr inbounds nuw i8, ptr %5, i64 4
  %23 = load i16, ptr %22, align 4
  %24 = zext i16 %23 to i32
  %25 = getelementptr inbounds nuw i8, ptr %5, i64 6
  %26 = load i8, ptr %25, align 2
  %27 = zext i8 %26 to i32
  %28 = shl nuw nsw i32 %27, 16
  %29 = or disjoint i32 %28, %24
  %30 = getelementptr inbounds nuw i8, ptr %5, i64 7
  %31 = load i8, ptr %30, align 1
  %32 = zext i8 %31 to i32
  %33 = shl nuw i32 %32, 24
  %34 = or disjoint i32 %29, %33
  %35 = getelementptr inbounds nuw i8, ptr %5, i64 8
  %36 = load i16, ptr %35, align 8
  %37 = zext i16 %36 to i32
  %38 = getelementptr inbounds nuw i8, ptr %5, i64 10
  %39 = load i8, ptr %38, align 2
  %40 = zext i8 %39 to i32
  %41 = shl nuw nsw i32 %40, 16
  %42 = or disjoint i32 %41, %37
  %43 = getelementptr inbounds nuw i8, ptr %5, i64 11
  %44 = load i8, ptr %43, align 1
  %45 = zext i8 %44 to i32
  %46 = shl nuw i32 %45, 24
  %47 = or disjoint i32 %42, %46
  %48 = getelementptr inbounds nuw i8, ptr %5, i64 12
  %49 = load i16, ptr %48, align 4
  %50 = zext i16 %49 to i32
  %51 = getelementptr inbounds nuw i8, ptr %5, i64 14
  %52 = load i8, ptr %51, align 2
  %53 = zext i8 %52 to i32
  %54 = shl nuw nsw i32 %53, 16
  %55 = or disjoint i32 %54, %50
  %56 = getelementptr inbounds nuw i8, ptr %5, i64 15
  %57 = load i8, ptr %56, align 1
  %58 = zext i8 %57 to i32
  %59 = shl nuw i32 %58, 24
  %60 = or disjoint i32 %55, %59
  %61 = getelementptr inbounds nuw i8, ptr %5, i64 16
  %62 = load i16, ptr %61, align 16
  %63 = zext i16 %62 to i32
  %64 = getelementptr inbounds nuw i8, ptr %5, i64 18
  %65 = load i8, ptr %64, align 2
  %66 = zext i8 %65 to i32
  %67 = shl nuw nsw i32 %66, 16
  %68 = or disjoint i32 %67, %63
  %69 = getelementptr inbounds nuw i8, ptr %5, i64 19
  %70 = load i8, ptr %69, align 1
  %71 = zext i8 %70 to i32
  %72 = shl nuw i32 %71, 24
  %73 = or disjoint i32 %68, %72
  %74 = getelementptr inbounds nuw i8, ptr %5, i64 20
  %75 = load i16, ptr %74, align 4
  %76 = zext i16 %75 to i32
  %77 = getelementptr inbounds nuw i8, ptr %5, i64 22
  %78 = load i8, ptr %77, align 2
  %79 = zext i8 %78 to i32
  %80 = shl nuw nsw i32 %79, 16
  %81 = or disjoint i32 %80, %76
  %82 = getelementptr inbounds nuw i8, ptr %5, i64 23
  %83 = load i8, ptr %82, align 1
  %84 = zext i8 %83 to i32
  %85 = shl nuw i32 %84, 24
  %86 = or disjoint i32 %81, %85
  %87 = getelementptr inbounds nuw i8, ptr %5, i64 24
  %88 = load i16, ptr %87, align 8
  %89 = zext i16 %88 to i32
  %90 = getelementptr inbounds nuw i8, ptr %5, i64 26
  %91 = load i8, ptr %90, align 2
  %92 = zext i8 %91 to i32
  %93 = shl nuw nsw i32 %92, 16
  %94 = or disjoint i32 %93, %89
  %95 = getelementptr inbounds nuw i8, ptr %5, i64 27
  %96 = load i8, ptr %95, align 1
  %97 = zext i8 %96 to i32
  %98 = shl nuw i32 %97, 24
  %99 = or disjoint i32 %94, %98
  %100 = getelementptr inbounds nuw i8, ptr %5, i64 28
  %101 = load i16, ptr %100, align 4
  %102 = zext i16 %101 to i32
  %103 = getelementptr inbounds nuw i8, ptr %5, i64 30
  %104 = load i8, ptr %103, align 2
  %105 = zext i8 %104 to i32
  %106 = shl nuw nsw i32 %105, 16
  %107 = or disjoint i32 %106, %102
  %108 = getelementptr inbounds nuw i8, ptr %5, i64 31
  %109 = load i8, ptr %108, align 1
  %110 = zext i8 %109 to i32
  %111 = shl nuw i32 %110, 24
  %112 = or disjoint i32 %107, %111
  store i32 %21, ptr %0, align 8
  %.sroa.3.0..sroa_idx87 = getelementptr inbounds nuw i8, ptr %0, i64 4
  store i32 %34, ptr %.sroa.3.0..sroa_idx87, align 4
  %.sroa.4.0..sroa_idx89 = getelementptr inbounds nuw i8, ptr %0, i64 8
  store i32 %47, ptr %.sroa.4.0..sroa_idx89, align 8
  %.sroa.5.0..sroa_idx91 = getelementptr inbounds nuw i8, ptr %0, i64 12
  store i32 %60, ptr %.sroa.5.0..sroa_idx91, align 4
  %.sroa.6.0..sroa_idx93 = getelementptr inbounds nuw i8, ptr %0, i64 16
  store i32 %73, ptr %.sroa.6.0..sroa_idx93, align 8
  %.sroa.7.0..sroa_idx95 = getelementptr inbounds nuw i8, ptr %0, i64 20
  store i32 %86, ptr %.sroa.7.0..sroa_idx95, align 4
  %.sroa.8.0..sroa_idx97 = getelementptr inbounds nuw i8, ptr %0, i64 24
  store i32 %99, ptr %.sroa.8.0..sroa_idx97, align 8
  %.sroa.9.0..sroa_idx99 = getelementptr inbounds nuw i8, ptr %0, i64 28
  store i32 %112, ptr %.sroa.9.0..sroa_idx99, align 4
  %113 = getelementptr inbounds nuw i8, ptr %0, i64 32
  store i32 %21, ptr %113, align 8
  %.sroa.3.0..sroa_idx = getelementptr inbounds nuw i8, ptr %0, i64 36
  store i32 %34, ptr %.sroa.3.0..sroa_idx, align 4
  %.sroa.4.0..sroa_idx = getelementptr inbounds nuw i8, ptr %0, i64 40
  store i32 %47, ptr %.sroa.4.0..sroa_idx, align 8
  %.sroa.5.0..sroa_idx = getelementptr inbounds nuw i8, ptr %0, i64 44
  store i32 %60, ptr %.sroa.5.0..sroa_idx, align 4
  %.sroa.6.0..sroa_idx = getelementptr inbounds nuw i8, ptr %0, i64 48
  store i32 %73, ptr %.sroa.6.0..sroa_idx, align 8
  %.sroa.7.0..sroa_idx = getelementptr inbounds nuw i8, ptr %0, i64 52
  store i32 %86, ptr %.sroa.7.0..sroa_idx, align 4
  %.sroa.8.0..sroa_idx = getelementptr inbounds nuw i8, ptr %0, i64 56
  store i32 %99, ptr %.sroa.8.0..sroa_idx, align 8
  %.sroa.9.0..sroa_idx = getelementptr inbounds nuw i8, ptr %0, i64 60
  store i32 %112, ptr %.sroa.9.0..sroa_idx, align 4
  %114 = getelementptr inbounds nuw i8, ptr %0, i64 64
  %115 = getelementptr inbounds nuw i8, ptr %0, i64 138
  call void @llvm.memset.p0.i64(ptr noundef nonnull align 8 dereferenceable(74) %114, i8 0, i64 74, i1 false)
  store i8 64, ptr %115, align 2
  %116 = getelementptr inbounds nuw i8, ptr %0, i64 144
  store i8 0, ptr %116, align 8
  ret void
}